target datalayout = "e-m:e-p270:32:32-p271:32:32-p272:64:64-i64:64-i128:128-f80:128-n8:16:32:64-S128"
target triple = "x86_64-unknown-linux-gnu"

%"class.icu_75::UObject" = type { ptr }
%"class.icu_75::UnicodeString" = type { %"class.icu_75::Replaceable", %"union.icu_75::UnicodeString::StackBufferOrFields" }
%"class.icu_75::Replaceable" = type { %"class.icu_75::UObject" }
%"union.icu_75::UnicodeString::StackBufferOrFields" = type { %struct.anon.0, [32 x i8] }
%struct.anon.0 = type { i16, i32, i32, ptr }
%"class.icu_75::AlphabeticIndex" = type { %"class.icu_75::UObject", ptr, i32, i32, ptr, i32, ptr, ptr, ptr, ptr, ptr, %"class.icu_75::UnicodeString", %"class.icu_75::UnicodeString", %"class.icu_75::UnicodeString", %"class.icu_75::UnicodeString", %"class.icu_75::UnicodeString" }

; Function Attrs: mustprogress nounwind uwtable
define void @_ZN6icu_7515AlphabeticIndex27internalResetBucketIteratorEv(ptr noundef nonnull align 8 dereferenceable(400) %this) #0 align 2 {
entry:
  %this.addr = alloca ptr, align 8
  store ptr %this, ptr %this.addr, align 8
  %this1 = load ptr, ptr %this.addr, align 8
  %labelsIterIndex_ = getelementptr inbounds %"class.icu_75::AlphabeticIndex", ptr %this1, i32 0, i32 2
  store i32 -1, ptr %labelsIterIndex_, align 8
  %currentBucket_ = getelementptr inbounds %"class.icu_75::AlphabeticIndex", ptr %this1, i32 0, i32 4
  store ptr null, ptr %currentBucket_, align 8
  ret void
}

; Function Attrs: mustprogress uwtable
define void @_ZN6icu_7515AlphabeticIndex12clearBucketsEv(ptr noundef nonnull align 8 dereferenceable(400) %this) #2 align 2 {
entry:
  %this.addr = alloca ptr, align 8
  store ptr %this, ptr %this.addr, align 8
  %this1 = load ptr, ptr %this.addr, align 8
  %buckets_ = getelementptr inbounds %"class.icu_75::AlphabeticIndex", ptr %this1, i32 0, i32 10
  %0 = load ptr, ptr %buckets_, align 8
  %cmp = icmp ne ptr %0, null
  br i1 %cmp, label %if.then, label %if.end

if.then:                                          ; preds = %entry
  %buckets_2 = getelementptr inbounds %"class.icu_75::AlphabeticIndex", ptr %this1, i32 0, i32 10
  %1 = load ptr, ptr %buckets_2, align 8
  %isnull = icmp eq ptr %1, null
  br i1 %isnull, label %delete.end, label %delete.notnull

delete.notnull:                                   ; preds = %if.then
  %vtable = load ptr, ptr %1, align 8
  %vfn = getelementptr inbounds ptr, ptr %vtable, i64 1
  %2 = load ptr, ptr %vfn, align 8
  call void %2(ptr noundef nonnull align 8 dereferenceable(24) %1) #7
  br label %delete.end

delete.end:                                       ; preds = %delete.notnull, %if.then
  %buckets_3 = getelementptr inbounds %"class.icu_75::AlphabeticIndex", ptr %this1, i32 0, i32 10
  store ptr null, ptr %buckets_3, align 8
  call void @_ZN6icu_7515AlphabeticIndex27internalResetBucketIteratorEv(ptr noundef nonnull align 8 dereferenceable(400) %this1)
  br label %if.end

if.end:                                           ; preds = %delete.end, %entry
  ret void
}

; Function Attrs: mustprogress uwtable
define noundef nonnull align 8 dereferenceable(400) ptr @_ZN6icu_7515AlphabeticIndex14setInflowLabelERKNS_13UnicodeStringER10UErrorCode(ptr noundef nonnull align 8 dereferenceable(400) %this, ptr noundef nonnull align 8 dereferenceable(64) %label, ptr noundef nonnull align 4 dereferenceable(4) %0) unnamed_addr #2 align 2 {
entry:
  %this.addr = alloca ptr, align 8
  %label.addr = alloca ptr, align 8
  %.addr = alloca ptr, align 8
  store ptr %this, ptr %this.addr, align 8
  store ptr %label, ptr %label.addr, align 8
  store ptr %0, ptr %.addr, align 8
  %this1 = load ptr, ptr %this.addr, align 8
  %1 = load ptr, ptr %label.addr, align 8
  %inflowLabel_ = getelementptr inbounds %"class.icu_75::AlphabeticIndex", ptr %this1, i32 0, i32 11
  %call = call noundef nonnull align 8 dereferenceable(64) ptr @_ZN6icu_7513UnicodeStringaSERKS0_(ptr noundef nonnull align 8 dereferenceable(64) %inflowLabel_, ptr noundef nonnull align 8 dereferenceable(64) %1)
  call void @_ZN6icu_7515AlphabeticIndex12clearBucketsEv(ptr noundef nonnull align 8 dereferenceable(400) %this1)
  ret ptr %this1
}