; Function Attrs: mustprogress uwtable
define noundef nonnull align 8 dereferenceable(400) ptr @_ZN6icu_7515AlphabeticIndex14setInflowLabelERKNS_13UnicodeStringER10UErrorCode(ptr noundef nonnull returned align 8 dereferenceable(400) %this, ptr noundef nonnull align 8 dereferenceable(64) %label, ptr nocapture nonnull readnone align 4 %0) unnamed_addr #3 align 2 {
entry:
  %inflowLabel_ = getelementptr inbounds i8, ptr %this, i64 80
  %call = tail call noundef nonnull align 8 dereferenceable(64) ptr @_ZN6icu_7513UnicodeStringaSERKS0_(ptr noundef nonnull align 8 dereferenceable(64) %inflowLabel_, ptr noundef nonnull align 8 dereferenceable(64) %label)
  %buckets_.i = getelementptr inbounds i8, ptr %this, i64 72
  %1 = load ptr, ptr %buckets_.i, align 8
  %cmp.not.i = icmp eq ptr %1, null
  br i1 %cmp.not.i, label %_ZN6icu_7515AlphabeticIndex12clearBucketsEv.exit, label %delete.notnull.i

delete.notnull.i:                                 ; preds = %entry
  %vtable.i = load ptr, ptr %1, align 8
  %vfn.i = getelementptr inbounds i8, ptr %vtable.i, i64 8
  %2 = load ptr, ptr %vfn.i, align 8
  tail call void %2(ptr noundef nonnull align 8 dereferenceable(24) %1) #16
  store ptr null, ptr %buckets_.i, align 8
  %labelsIterIndex_.i.i = getelementptr inbounds i8, ptr %this, i64 16
  store i32 -1, ptr %labelsIterIndex_.i.i, align 8
  %currentBucket_.i.i = getelementptr inbounds i8, ptr %this, i64 24
  store ptr null, ptr %currentBucket_.i.i, align 8
  br label %_ZN6icu_7515AlphabeticIndex12clearBucketsEv.exit

_ZN6icu_7515AlphabeticIndex12clearBucketsEv.exit: ; preds = %entry, %delete.notnull.i
  ret ptr %this
}